target datalayout = "e-m:e-p270:32:32-p271:32:32-p272:64:64-i64:64-i128:128-f80:128-n8:16:32:64-S128"
target triple = "x86_64-pc-linux-gnu"

; Function Attrs: nounwind uwtable
define i32 @cdn_eft_is_valid(ptr noundef %0, i64 noundef %1) #0 {
  %3 = alloca i32, align 4
  %4 = alloca ptr, align 8
  %5 = alloca i64, align 8
  %6 = alloca i32, align 4
  %7 = alloca i32, align 4
  store ptr %0, ptr %4, align 8
  store i64 %1, ptr %5, align 8
  store i32 0, ptr %6, align 4
  %8 = load ptr, ptr %4, align 8
  %9 = icmp eq ptr %8, null
  br i1 %9, label %13, label %10

10:                                               ; preds = %2
  %11 = load i64, ptr %5, align 8
  %12 = icmp ult i64 %11, 9
  br i1 %12, label %13, label %14

13:                                               ; preds = %10, %2
  store i32 0, ptr %3, align 4
  br label %85

14:                                               ; preds = %10
  %15 = load ptr, ptr %4, align 8
  %16 = getelementptr inbounds i8, ptr %15, i64 0
  %17 = load i8, ptr %16, align 1
  %18 = sext i8 %17 to i32
  %19 = icmp ne i32 %18, 48
  br i1 %19, label %20, label %21

20:                                               ; preds = %14
  store i32 0, ptr %3, align 4
  br label %85

21:                                               ; preds = %14
  store i32 1, ptr %7, align 4
  br label %22

22:                                               ; preds = %52, %21
  %23 = load i32, ptr %7, align 4
  %24 = icmp slt i32 %23, 4
  br i1 %24, label %25, label %55

25:                                               ; preds = %22
  %26 = call ptr @__ctype_b_loc() #5
  %27 = load ptr, ptr %26, align 8
  %28 = load ptr, ptr %4, align 8
  %29 = load i32, ptr %7, align 4
  %30 = sext i32 %29 to i64
  %31 = getelementptr inbounds i8, ptr %28, i64 %30
  %32 = load i8, ptr %31, align 1
  %33 = sext i8 %32 to i32
  %34 = sext i32 %33 to i64
  %35 = getelementptr inbounds i16, ptr %27, i64 %34
  %36 = load i16, ptr %35, align 2
  %37 = zext i16 %36 to i32
  %38 = and i32 %37, 2048
  %39 = icmp eq i32 %38, 0
  br i1 %39, label %40, label %41

40:                                               ; preds = %25
  store i32 0, ptr %3, align 4
  br label %85

41:                                               ; preds = %25
  %42 = load i32, ptr %6, align 4
  %43 = mul nsw i32 %42, 10
  %44 = load ptr, ptr %4, align 8
  %45 = load i32, ptr %7, align 4
  %46 = sext i32 %45 to i64
  %47 = getelementptr inbounds i8, ptr %44, i64 %46
  %48 = load i8, ptr %47, align 1
  %49 = sext i8 %48 to i32
  %50 = sub nsw i32 %49, 48
  %51 = add nsw i32 %43, %50
  store i32 %51, ptr %6, align 4
  br label %52

52:                                               ; preds = %41
  %53 = load i32, ptr %7, align 4
  %54 = add nsw i32 %53, 1
  store i32 %54, ptr %7, align 4
  br label %22

55:                                               ; preds = %22
  %56 = load i32, ptr %6, align 4
  %57 = call i32 @is_bank_code_valid(i32 noundef %56)
  %58 = icmp ne i32 %57, 0
  br i1 %58, label %60, label %59

59:                                               ; preds = %55
  store i32 0, ptr %3, align 4
  br label %85

60:                                               ; preds = %55
  store i32 4, ptr %7, align 4
  br label %61

61:                                               ; preds = %81, %60
  %62 = load i32, ptr %7, align 4
  %63 = icmp slt i32 %62, 9
  br i1 %63, label %64, label %84

64:                                               ; preds = %61
  %65 = call ptr @__ctype_b_loc() #5
  %66 = load ptr, ptr %65, align 8
  %67 = load ptr, ptr %4, align 8
  %68 = load i32, ptr %7, align 4
  %69 = sext i32 %68 to i64
  %70 = getelementptr inbounds i8, ptr %67, i64 %69
  %71 = load i8, ptr %70, align 1
  %72 = sext i8 %71 to i32
  %73 = sext i32 %72 to i64
  %74 = getelementptr inbounds i16, ptr %66, i64 %73
  %75 = load i16, ptr %74, align 2
  %76 = zext i16 %75 to i32
  %77 = and i32 %76, 2048
  %78 = icmp eq i32 %77, 0
  br i1 %78, label %79, label %80

79:                                               ; preds = %64
  store i32 0, ptr %3, align 4
  br label %85

80:                                               ; preds = %64
  br label %81

81:                                               ; preds = %80
  %82 = load i32, ptr %7, align 4
  %83 = add nsw i32 %82, 1
  store i32 %83, ptr %7, align 4
  br label %61

84:                                               ; preds = %61
  store i32 1, ptr %3, align 4
  br label %85

85:                                               ; preds = %84, %79, %59, %40, %20, %13
  %86 = load i32, ptr %3, align 4
  ret i32 %86
}