; Function Attrs: nofree nosync nounwind memory(read, inaccessiblemem: none) uwtable
define range(i32 0, 2) i32 @cdn_eft_is_valid(ptr noundef readonly %0, i64 noundef %1) local_unnamed_addr #6 {
  %3 = icmp eq ptr %0, null
  %4 = icmp ult i64 %1, 9
  %or.cond = or i1 %3, %4
  br i1 %or.cond, label %.loopexit, label %5

5:                                                ; preds = %2
  %6 = load i8, ptr %0, align 1
  %.not = icmp eq i8 %6, 48
  br i1 %.not, label %.preheader20, label %.loopexit

.preheader20:                                     ; preds = %5
  %7 = tail call ptr @__ctype_b_loc() #9
  %8 = load ptr, ptr %7, align 8
  br label %9

9:                                                ; preds = %.preheader20, %17
  %indvars.iv = phi i64 [ 1, %.preheader20 ], [ %indvars.iv.next, %17 ]
  %.01623 = phi i32 [ 0, %.preheader20 ], [ %21, %17 ]
  %10 = getelementptr inbounds nuw i8, ptr %0, i64 %indvars.iv
  %11 = load i8, ptr %10, align 1
  %12 = sext i8 %11 to i64
  %13 = getelementptr inbounds i16, ptr %8, i64 %12
  %14 = load i16, ptr %13, align 2
  %15 = and i16 %14, 2048
  %16 = icmp eq i16 %15, 0
  br i1 %16, label %.loopexit, label %17

17:                                               ; preds = %9
  %18 = sext i8 %11 to i32
  %19 = mul nsw i32 %.01623, 10
  %20 = add i32 %19, -48
  %21 = add i32 %20, %18
  %indvars.iv.next = add nuw nsw i64 %indvars.iv, 1
  %exitcond.not = icmp eq i64 %indvars.iv.next, 4
  br i1 %exitcond.not, label %22, label %9

22:                                               ; preds = %17
  %23 = tail call i32 @is_bank_code_valid(i32 noundef %21)
  %.not19 = icmp eq i32 %23, 0
  br i1 %.not19, label %.loopexit, label %.preheader

24:                                               ; preds = %.preheader
  %indvars.iv.next29 = add nuw nsw i64 %indvars.iv28, 1
  %exitcond31.not = icmp eq i64 %indvars.iv.next29, 9
  br i1 %exitcond31.not, label %.loopexit, label %.preheader

.preheader:                                       ; preds = %22, %24
  %indvars.iv28 = phi i64 [ %indvars.iv.next29, %24 ], [ 4, %22 ]
  %25 = getelementptr inbounds nuw i8, ptr %0, i64 %indvars.iv28
  %26 = load i8, ptr %25, align 1
  %27 = sext i8 %26 to i64
  %28 = getelementptr inbounds i16, ptr %8, i64 %27
  %29 = load i16, ptr %28, align 2
  %30 = and i16 %29, 2048
  %31 = icmp eq i16 %30, 0
  br i1 %31, label %.loopexit, label %24

.loopexit:                                        ; preds = %9, %24, %.preheader, %22, %5, %2
  %.017 = phi i32 [ 0, %2 ], [ 0, %5 ], [ 0, %22 ], [ 1, %24 ], [ 0, %.preheader ], [ 0, %9 ]
  ret i32 %.017
}